target datalayout = "e-m:e-p270:32:32-p271:32:32-p272:64:64-i64:64-i128:128-f80:128-n8:16:32:64-S128"
target triple = "x86_64-pc-linux-gnu"

%struct._rtpstream_info = type { %struct._rtpstream_id, i8, ptr, [256 x ptr], ptr, i8, i32, i8, i32, i32, i32, ptr, ptr, %struct.nstime_t, %struct.nstime_t, %struct.nstime_t, i16, i8, i8, %struct._tap_rtp_stat_t, i8, ptr }
%struct._rtpstream_id = type { %struct._address, i16, %struct._address, i16, i32 }
%struct._address = type { i32, i32, ptr, ptr }
%struct.nstime_t = type { i64, i32 }
%struct._tap_rtp_stat_t = type { i8, i32, i16, i64, i64, double, [300 x %struct._bw_history_item], i16, i16, i32, i32, double, double, double, double, double, double, double, double, double, double, double, double, double, double, double, double, double, double, double, i32, i32, i32, i32, i32, i16, i32, i32, i32 }
%struct._bw_history_item = type { double, i32 }
%struct._GList = type { ptr, ptr, ptr }

; Function Attrs: null_pointer_is_valid sspstrong uwtable
define hidden i32 @rtpstream_to_hash(ptr noundef %0) #2 {
  %2 = alloca i32, align 4
  %3 = alloca ptr, align 8
  store ptr %0, ptr %3, align 8
  %4 = load ptr, ptr %3, align 8
  %5 = icmp ne ptr %4, null
  br i1 %5, label %6, label %10

6:                                                ; preds = %1
  %7 = load ptr, ptr %3, align 8
  %8 = getelementptr inbounds nuw %struct._rtpstream_info, ptr %7, i32 0, i32 0
  %9 = call i32 @rtpstream_id_to_hash(ptr noundef %8)
  store i32 %9, ptr %2, align 4
  br label %11

10:                                               ; preds = %1
  store i32 0, ptr %2, align 4
  br label %11

11:                                               ; preds = %10, %6
  %12 = load i32, ptr %2, align 4
  ret i32 %12
}

; Function Attrs: null_pointer_is_valid sspstrong uwtable
define hidden void @rtpstream_info_multihash_insert(ptr noundef %0, ptr noundef %1) #2 {
  %3 = alloca ptr, align 8
  %4 = alloca ptr, align 8
  %5 = alloca ptr, align 8
  %6 = alloca i8, align 1
  %7 = alloca ptr, align 8
  store ptr %0, ptr %3, align 8
  store ptr %1, ptr %4, align 8
  call void @llvm.lifetime.start.p0(i64 8, ptr %5) #17
  %8 = load ptr, ptr %3, align 8
  %9 = load ptr, ptr %4, align 8
  %10 = call i32 @rtpstream_to_hash(ptr noundef %9)
  %11 = zext i32 %10 to i64
  %12 = inttoptr i64 %11 to ptr
  %13 = call ptr @g_hash_table_lookup(ptr noundef %8, ptr noundef %12)
  store ptr %13, ptr %5, align 8
  call void @llvm.lifetime.start.p0(i64 1, ptr %6) #17
  store i8 0, ptr %6, align 1
  %14 = load ptr, ptr %5, align 8
  %15 = icmp ne ptr %14, null
  br i1 %15, label %16, label %49

16:                                               ; preds = %2
  call void @llvm.lifetime.start.p0(i64 8, ptr %7) #17
  %17 = load ptr, ptr %5, align 8
  %18 = call ptr @g_list_first(ptr noundef %17)
  store ptr %18, ptr %7, align 8
  br label %19

19:                                               ; preds = %39, %16
  %20 = load ptr, ptr %7, align 8
  %21 = icmp ne ptr %20, null
  br i1 %21, label %22, label %41

22:                                               ; preds = %19
  %23 = load ptr, ptr %4, align 8
  %24 = getelementptr inbounds nuw %struct._rtpstream_info, ptr %23, i32 0, i32 0
  %25 = load ptr, ptr %7, align 8
  %26 = getelementptr inbounds nuw %struct._GList, ptr %25, i32 0, i32 0
  %27 = load ptr, ptr %26, align 8
  %28 = getelementptr inbounds nuw %struct._rtpstream_info, ptr %27, i32 0, i32 0
  %29 = call zeroext i1 @rtpstream_id_equal(ptr noundef %24, ptr noundef %28, i32 noundef 1)
  br i1 %29, label %30, label %31

30:                                               ; preds = %22
  store i8 1, ptr %6, align 1
  br label %41

31:                                               ; preds = %22
  %32 = load ptr, ptr %7, align 8
  %33 = icmp ne ptr %32, null
  br i1 %33, label %34, label %38

34:                                               ; preds = %31
  %35 = load ptr, ptr %7, align 8
  %36 = getelementptr inbounds nuw %struct._GList, ptr %35, i32 0, i32 1
  %37 = load ptr, ptr %36, align 8
  br label %39

38:                                               ; preds = %31
  br label %39

39:                                               ; preds = %38, %34
  %40 = phi ptr [ %37, %34 ], [ null, %38 ]
  store ptr %40, ptr %7, align 8
  br label %19, !llvm.loop !13

41:                                               ; preds = %30, %19
  %42 = load i8, ptr %6, align 1, !range !8, !noundef !9
  %43 = trunc i8 %42 to i1
  br i1 %43, label %48, label %44

44:                                               ; preds = %41
  %45 = load ptr, ptr %5, align 8
  %46 = load ptr, ptr %4, align 8
  %47 = call ptr @g_list_prepend(ptr noundef %45, ptr noundef %46)
  store ptr %47, ptr %5, align 8
  br label %48

48:                                               ; preds = %44, %41
  call void @llvm.lifetime.end.p0(i64 8, ptr %7) #17
  br label %53

49:                                               ; preds = %2
  %50 = load ptr, ptr %5, align 8
  %51 = load ptr, ptr %4, align 8
  %52 = call ptr @g_list_prepend(ptr noundef %50, ptr noundef %51)
  store ptr %52, ptr %5, align 8
  br label %53

53:                                               ; preds = %49, %48
  %54 = load ptr, ptr %3, align 8
  %55 = load ptr, ptr %4, align 8
  %56 = call i32 @rtpstream_to_hash(ptr noundef %55)
  %57 = zext i32 %56 to i64
  %58 = inttoptr i64 %57 to ptr
  %59 = load ptr, ptr %5, align 8
  %60 = call i32 @g_hash_table_insert(ptr noundef %54, ptr noundef %58, ptr noundef %59)
  call void @llvm.lifetime.end.p0(i64 1, ptr %6) #17
  call void @llvm.lifetime.end.p0(i64 8, ptr %5) #17
  ret void
}