; Function Attrs: null_pointer_is_valid sspstrong uwtable
define hidden void @rtpstream_info_multihash_insert(ptr noundef %0, ptr noundef %1) local_unnamed_addr #1 {
  %.not.i = icmp eq ptr %1, null
  br i1 %.not.i, label %rtpstream_to_hash.exit, label %3

3:                                                ; preds = %2
  %4 = tail call i32 @rtpstream_id_to_hash(ptr noundef nonnull %1)
  %5 = zext i32 %4 to i64
  %6 = inttoptr i64 %5 to ptr
  br label %rtpstream_to_hash.exit

rtpstream_to_hash.exit:                           ; preds = %2, %3
  %.0.i = phi ptr [ %6, %3 ], [ null, %2 ]
  %7 = tail call ptr @g_hash_table_lookup(ptr noundef %0, ptr noundef %.0.i)
  %.not = icmp eq ptr %7, null
  br i1 %.not, label %.loopexit.sink.split, label %8

8:                                                ; preds = %rtpstream_to_hash.exit
  %9 = tail call ptr @g_list_first(ptr noundef nonnull %7)
  %.not20.not24 = icmp eq ptr %9, null
  br i1 %.not20.not24, label %.loopexit.sink.split, label %.lr.ph

.lr.ph:                                           ; preds = %8, %12
  %.025 = phi ptr [ %14, %12 ], [ %9, %8 ]
  %10 = load ptr, ptr %.025, align 8
  %11 = tail call zeroext i1 @rtpstream_id_equal(ptr noundef %1, ptr noundef %10, i32 noundef 1)
  br i1 %11, label %.loopexit, label %12

12:                                               ; preds = %.lr.ph
  %13 = getelementptr inbounds nuw i8, ptr %.025, i64 8
  %14 = load ptr, ptr %13, align 8
  %.not20.not = icmp eq ptr %14, null
  br i1 %.not20.not, label %.loopexit.sink.split, label %.lr.ph, !llvm.loop !18

.loopexit.sink.split:                             ; preds = %12, %rtpstream_to_hash.exit, %8
  %.sink = phi ptr [ %7, %8 ], [ null, %rtpstream_to_hash.exit ], [ %7, %12 ]
  %15 = tail call ptr @g_list_prepend(ptr noundef %.sink, ptr noundef %1)
  br label %.loopexit

.loopexit:                                        ; preds = %.lr.ph, %.loopexit.sink.split
  %.1 = phi ptr [ %15, %.loopexit.sink.split ], [ %7, %.lr.ph ]
  br i1 %.not.i, label %rtpstream_to_hash.exit23, label %16

16:                                               ; preds = %.loopexit
  %17 = tail call i32 @rtpstream_id_to_hash(ptr noundef nonnull %1)
  %18 = zext i32 %17 to i64
  %19 = inttoptr i64 %18 to ptr
  br label %rtpstream_to_hash.exit23

rtpstream_to_hash.exit23:                         ; preds = %.loopexit, %16
  %.0.i22 = phi ptr [ %19, %16 ], [ null, %.loopexit ]
  %20 = tail call i32 @g_hash_table_insert(ptr noundef %0, ptr noundef %.0.i22, ptr noundef %.1)
  ret void
}